
Memory Configuration

Name             Origin             Length             Attributes
*default*        0x0000000000000000 0xffffffffffffffff

Linker script and memory map

Address of section .text set to 0x7000000
LOAD build/us_n64/bin/inside.elf
LOAD build/us_n64/levels/sa/leveldata.o
                [!provide]                        PROVIDE (__executable_start = SEGMENT_START ("text-segment", 0x400000))
                0x0000000000400000                . = SEGMENT_START ("text-segment", 0x400000)

.interp
 *(.interp)

.MIPS.abiflags  0x0000000000400000       0x18
 *(.MIPS.abiflags)
 .MIPS.abiflags
                0x0000000000400000       0x18 build/us_n64/levels/sa/leveldata.o

.reginfo        0x0000000000400018       0x18
 *(.reginfo)
 .reginfo       0x0000000000400018       0x18 build/us_n64/levels/sa/leveldata.o

.note.gnu.build-id
 *(.note.gnu.build-id)

.dynamic
 *(.dynamic)

.hash
 *(.hash)

.gnu.hash
 *(.gnu.hash)

.dynsym
 *(.dynsym)

.dynstr
 *(.dynstr)

.gnu.version
 *(.gnu.version)

.gnu.version_d
 *(.gnu.version_d)

.gnu.version_r
 *(.gnu.version_r)

.rel.dyn        0x0000000000400018        0x0 load address 0x0000000000400030
 *(.rel.init)
 *(.rel.text .rel.text.* .rel.gnu.linkonce.t.*)
 *(.rel.fini)
 *(.rel.rodata .rel.rodata.* .rel.gnu.linkonce.r.*)
 *(.rel.data.rel.ro .rel.data.rel.ro.* .rel.gnu.linkonce.d.rel.ro.*)
 *(.rel.data .rel.data.* .rel.gnu.linkonce.d.*)
 *(.rel.tdata .rel.tdata.* .rel.gnu.linkonce.td.*)
 *(.rel.tbss .rel.tbss.* .rel.gnu.linkonce.tb.*)
 *(.rel.ctors)
 *(.rel.dtors)
 *(.rel.got)
 *(.rel.dyn)
 .rel.dyn       0x0000000000400018        0x0 build/us_n64/levels/sa/leveldata.o
 *(.rel.sdata .rel.sdata.* .rel.gnu.linkonce.s.*)
 *(.rel.sbss .rel.sbss.* .rel.gnu.linkonce.sb.*)
 *(.rel.sdata2 .rel.sdata2.* .rel.gnu.linkonce.s2.*)
 *(.rel.sbss2 .rel.sbss2.* .rel.gnu.linkonce.sb2.*)
 *(.rel.bss .rel.bss.* .rel.gnu.linkonce.b.*)
                [!provide]                        PROVIDE (__rel_iplt_start = .)
 *(.rel.iplt)
                [!provide]                        PROVIDE (__rel_iplt_end = .)

.rela.dyn       0x0000000000400018        0x0
 *(.rela.init)
 *(.rela.text .rela.text.* .rela.gnu.linkonce.t.*)
 *(.rela.fini)
 *(.rela.rodata .rela.rodata.* .rela.gnu.linkonce.r.*)
 *(.rela.data .rela.data.* .rela.gnu.linkonce.d.*)
 *(.rela.tdata .rela.tdata.* .rela.gnu.linkonce.td.*)
 *(.rela.tbss .rela.tbss.* .rela.gnu.linkonce.tb.*)
 *(.rela.ctors)
 *(.rela.dtors)
 *(.rela.got)
 *(.rela.sdata .rela.sdata.* .rela.gnu.linkonce.s.*)
 *(.rela.sbss .rela.sbss.* .rela.gnu.linkonce.sb.*)
 *(.rela.sdata2 .rela.sdata2.* .rela.gnu.linkonce.s2.*)
 *(.rela.sbss2 .rela.sbss2.* .rela.gnu.linkonce.sb2.*)
 *(.rela.bss .rela.bss.* .rela.gnu.linkonce.b.*)
                [!provide]                        PROVIDE (__rela_iplt_start = .)
 *(.rela.iplt)
                [!provide]                        PROVIDE (__rela_iplt_end = .)

.rel.plt
 *(.rel.plt)

.rela.plt
 *(.rela.plt)

.init
 *(SORT_NONE(.init))

.plt
 *(.plt)

.iplt
 *(.iplt)

.text           0x0000000007000000        0x0 load address 0x0000000007000018
                0x0000000007000000                _ftext = .
 *(.text.unlikely .text.*_unlikely .text.unlikely.*)
 *(.text.exit .text.exit.*)
 *(.text.startup .text.startup.*)
 *(.text.hot .text.hot.*)
 *(.text .stub .text.* .gnu.linkonce.t.*)
 .text          0x0000000007000000        0x0 build/us_n64/levels/sa/leveldata.o
 *(.gnu.warning)
 *(.mips16.fn.*)
 *(.mips16.call.*)

.fini
 *(SORT_NONE(.fini))
                [!provide]                        PROVIDE (__etext = .)
                [!provide]                        PROVIDE (_etext = .)
                [!provide]                        PROVIDE (etext = .)

.rodata
 *(.rodata .rodata.* .gnu.linkonce.r.*)

.rodata1
 *(.rodata1)

.sdata2
 *(.sdata2 .sdata2.* .gnu.linkonce.s2.*)

.sbss2
 *(.sbss2 .sbss2.* .gnu.linkonce.sb2.*)

.eh_frame_hdr
 *(.eh_frame_hdr)
 *(.eh_frame_entry .eh_frame_entry.*)

.eh_frame
 *(.eh_frame)
 *(.eh_frame.*)

.gcc_except_table
 *(.gcc_except_table .gcc_except_table.*)

.gnu_extab
 *(.gnu_extab*)

.exception_ranges
 *(.exception_ranges .exception_ranges*)
                0x0000000007000000                . = DATA_SEGMENT_ALIGN (CONSTANT (MAXPAGESIZE), CONSTANT (COMMONPAGESIZE))

.eh_frame
 *(.eh_frame)
 *(.eh_frame.*)

.gnu_extab
 *(.gnu_extab)

.gcc_except_table
 *(.gcc_except_table .gcc_except_table.*)

.exception_ranges
 *(.exception_ranges .exception_ranges*)

.tdata
 *(.tdata .tdata.* .gnu.linkonce.td.*)

.tbss
 *(.tbss .tbss.* .gnu.linkonce.tb.*)
 *(.tcommon)

.preinit_array  0x0000000007000000        0x0
                [!provide]                        PROVIDE (__preinit_array_start = .)
 *(.preinit_array)
                [!provide]                        PROVIDE (__preinit_array_end = .)

.init_array     0x0000000007000000        0x0
                [!provide]                        PROVIDE (__init_array_start = .)
 *(SORT_BY_INIT_PRIORITY(.init_array.*) SORT_BY_INIT_PRIORITY(.ctors.*))
 *(.init_array EXCLUDE_FILE(*crtend?.o *crtend.o *crtbegin?.o *crtbegin.o) .ctors)
                [!provide]                        PROVIDE (__init_array_end = .)

.fini_array     0x0000000007000000        0x0
                [!provide]                        PROVIDE (__fini_array_start = .)
 *(SORT_BY_INIT_PRIORITY(.fini_array.*) SORT_BY_INIT_PRIORITY(.dtors.*))
 *(.fini_array EXCLUDE_FILE(*crtend?.o *crtend.o *crtbegin?.o *crtbegin.o) .dtors)
                [!provide]                        PROVIDE (__fini_array_end = .)

.ctors
 *crtbegin.o(.ctors)
 *crtbegin?.o(.ctors)
 *(EXCLUDE_FILE(*crtend?.o *crtend.o) .ctors)
 *(SORT_BY_NAME(.ctors.*))
 *(.ctors)

.dtors
 *crtbegin.o(.dtors)
 *crtbegin?.o(.dtors)
 *(EXCLUDE_FILE(*crtend?.o *crtend.o) .dtors)
 *(SORT_BY_NAME(.dtors.*))
 *(.dtors)

.jcr
 *(.jcr)

.data.rel.ro
 *(.data.rel.ro.local* .gnu.linkonce.d.rel.ro.local.*)
 *(.data.rel.ro .data.rel.ro.* .gnu.linkonce.d.rel.ro.*)
                0x0000000007000000                . = DATA_SEGMENT_RELRO_END (., 0x0)

.data           0x0000000007000000    0x70276 load address 0x0000000007000018
                0x0000000007000000                _fdata = .
 *(.data .data.* .gnu.linkonce.d.*)
 .data          0x0000000007000000    0x70276 build/us_n64/levels/sa/leveldata.o
                0x0000000007000000                gemmies_gems_mesh_layer_1
                0x0000000007000348                gemmies_gems_mesh_layer_1_vtx_3
                0x0000000007000748                gemmies_gems_mesh_layer_1_vtx_2
                0x0000000007000b48                gemmies_gems_mesh_layer_1_vtx_1
                0x0000000007000f48                gemmies_gems_mesh_layer_1_vtx_0
                0x0000000007001348                gemmies_gems_mesh_layer_1_vtx_cull
                0x00000000070013c8                gemmies_green_gem_pal_rgba16
                0x00000000070013d0                gemmies_green_gem_pal_rgba16_aligner
                0x00000000070013d8                gemmies_green_gem_ci4
                0x00000000070013f8                gemmies_green_gem_ci4_aligner
                0x0000000007001400                gemmies_blue_gem_pal_rgba16
                0x0000000007001408                gemmies_blue_gem_pal_rgba16_aligner
                0x0000000007001410                gemmies_blue_gem_ci4
                0x0000000007001430                gemmies_blue_gem_ci4_aligner
                0x0000000007001438                gemmies_red_gem_pal_rgba16
                0x0000000007001440                gemmies_red_gem_pal_rgba16_aligner
                0x0000000007001448                gemmies_red_gem_ci4
                0x0000000007001468                gemmies_red_gem_ci4_aligner
                0x0000000007001470                gemmies_purple_gem_pal_rgba16
                0x0000000007001478                gemmies_purple_gem_pal_rgba16_aligner
                0x0000000007001480                gemmies_purple_gem_ci4
                0x00000000070014a0                gemmies_purple_gem_ci4_aligner
                0x00000000070014a8                gemmies_collision
                0x00000000070019b4                sa_ladder2_collision
                0x00000000070019bc                sa_ladder_collision
                0x00000000070019f0                sa_ladder_zone2_002_mesh_layer_4
                0x0000000007001ae8                sa_ladder_zone2_002_mesh_layer_4_vtx_0
                0x0000000007001b28                sa_ladder_zone2_002_mesh_layer_4_vtx_cull
                0x0000000007001ba8                sa_ladder_tex1_64x64_710D4481E0ADAB42_13_pal_rgba16
                0x0000000007001bc8                sa_ladder_tex1_64x64_710D4481E0ADAB42_13_pal_rgba16_aligner
                0x0000000007001bd0                sa_ladder_tex1_64x64_710D4481E0ADAB42_13_ci4
                0x00000000070023d0                sa_ladder_tex1_64x64_710D4481E0ADAB42_13_ci4_aligner
                0x00000000070023d8                breakwindow_window_mesh_layer_1
                0x0000000007002430                mat_revert_breakwindow_Windows_f3d
                0x0000000007002448                mat_breakwindow_Windows_f3d
                0x0000000007002498                breakwindow_window_mesh_layer_1_tri_0
                0x00000000070024b8                breakwindow_window_mesh_layer_1_vtx_0
                0x00000000070024f8                breakwindow_Windows_rgba16
                0x0000000007002cf8                breakwindow_Windows_rgba16_aligner
                0x0000000007002d00                breakwindow_collision
                0x0000000007002d38                sa_dl_sun_003_mesh_layer_5
                0x0000000007002e98                sa_dl_sun_002_mesh_layer_5
                0x0000000007002ff0                sa_dl_sun_001_mesh_layer_5
                0x00000000070031d8                sa_dl_sun_mesh_layer_1
                0x00000000070033d8                sa_dl_stairs2_mesh_layer_1
                0x0000000007003b98                sa_dl_stairs_mesh_layer_1
                0x0000000007004330                sa_dl_skybox4sh_mesh_layer_0
                0x0000000007004620                sa_dl_skybox3_mesh_layer_0
                0x00000000070047b0                sa_dl_skybox2_mesh_layer_0
                0x0000000007004990                sa_dl_skybox1_mesh_layer_0
                0x0000000007004b60                sa_dl_platform_glass_mesh_layer_5
                0x0000000007005098                sa_dl_platform_challenge_mesh_layer_1
                0x0000000007005590                sa_dl_platform_mesh_layer_1
                0x00000000070064c8                sa_dl_door_mesh_layer_1
                0x0000000007006618                sa_dl_zonepaths_mesh_layer_1
                0x0000000007006a90                sa_dl_zone4water_mesh_layer_5
                0x0000000007006bb8                sa_dl_zone4flowers_mesh_layer_1
                0x0000000007007220                sa_dl_zone4_moss_mesh_layer_1
                0x0000000007007348                sa_dl_zone4_door_inside_mesh_layer_1
                0x0000000007007430                sa_dl_zone4_door_mesh_layer_5
                0x0000000007007518                sa_dl_zone4_mesh_layer_5
                0x00000000070076a8                sa_dl_zone4_mesh_layer_1
                0x00000000070087e8                sa_dl_zone3_extra_cull_2_mesh_layer_1
                0x0000000007008dd0                sa_dl_zone3_extra_cull_mesh_layer_1
                0x000000000700ac90                sa_dl_zone3_mesh_layer_1
                0x000000000700bb80                sa_dl_zone2bullseye_mesh_layer_1
                0x000000000700bc60                sa_dl_zone2_bulb_mesh_layer_5
                0x000000000700bd40                sa_dl_zone2_mesh_layer_5
                0x000000000700c090                sa_dl_zone2_mesh_layer_1
                0x000000000700d0f0                sa_dl_zone1water_mesh_layer_5
                0x000000000700d240                sa_dl_zone1_mesh_layer_4
                0x000000000700d3a0                sa_dl_zone1_mesh_layer_1
                0x000000000700df40                sa_dl_sun_003_mesh_layer_5_vtx_0
                0x000000000700e6d0                sa_dl_sun_002_mesh_layer_5_vtx_0
                0x000000000700ec50                sa_dl_sun_001_mesh_layer_5_vtx_0
                0x000000000700efa0                sa_dl_sun_mesh_layer_1_vtx_0
                0x000000000700f390                sa_dl_stairs2_mesh_layer_1_vtx_1
                0x00000000070103d0                sa_dl_stairs2_mesh_layer_1_vtx_0
                0x00000000070118e0                sa_dl_stairs2_mesh_layer_1_vtx_cull
                0x0000000007011960                sa_dl_stairs_mesh_layer_1_vtx_1
                0x0000000007012960                sa_dl_stairs_mesh_layer_1_vtx_0
                0x0000000007013e00                sa_dl_stairs_mesh_layer_1_vtx_cull
                0x0000000007013e80                sa_dl_skybox4sh_mesh_layer_0_vtx_0
                0x00000000070149a0                sa_dl_skybox3_mesh_layer_0_vtx_0
                0x0000000007014d30                sa_dl_skybox2_mesh_layer_0_vtx_0
                0x00000000070150c0                sa_dl_skybox1_mesh_layer_0_vtx_0
                0x0000000007015620                sa_dl_platform_glass_mesh_layer_5_vtx_3
                0x00000000070159e0                sa_dl_platform_glass_mesh_layer_5_vtx_2
                0x0000000007015de0                sa_dl_platform_glass_mesh_layer_5_vtx_1
                0x00000000070161a0                sa_dl_platform_glass_mesh_layer_5_vtx_0
                0x0000000007016970                sa_dl_platform_glass_mesh_layer_5_vtx_cull
                0x00000000070169f0                sa_dl_platform_challenge_mesh_layer_1_vtx_1
                0x0000000007017f90                sa_dl_platform_challenge_mesh_layer_1_vtx_0
                0x0000000007018770                sa_dl_platform_challenge_mesh_layer_1_vtx_cull
                0x00000000070187f0                sa_dl_platform_mesh_layer_1_vtx_1
                0x000000000701ca30                sa_dl_platform_mesh_layer_1_vtx_0
                0x000000000701d930                sa_dl_platform_mesh_layer_1_vtx_cull
                0x000000000701d9b0                sa_dl_door_mesh_layer_1_vtx_0
                0x000000000701de30                sa_dl_door_mesh_layer_1_vtx_cull
                0x000000000701deb0                sa_dl_zonepaths_mesh_layer_1_vtx_4
                0x000000000701dfb0                sa_dl_zonepaths_mesh_layer_1_vtx_3
                0x000000000701e030                sa_dl_zonepaths_mesh_layer_1_vtx_2
                0x000000000701e770                sa_dl_zonepaths_mesh_layer_1_vtx_1
                0x000000000701e960                sa_dl_zonepaths_mesh_layer_1_vtx_0
                0x000000000701eae0                sa_dl_zonepaths_mesh_layer_1_vtx_cull
                0x000000000701eb60                sa_dl_zone4water_mesh_layer_5_vtx_0
                0x000000000701ecb0                sa_dl_zone4water_mesh_layer_5_vtx_cull
                0x000000000701ed30                sa_dl_zone4flowers_mesh_layer_1_vtx_2
                0x000000000701f230                sa_dl_zone4flowers_mesh_layer_1_vtx_1
                0x000000000701fdd0                sa_dl_zone4flowers_mesh_layer_1_vtx_0
                0x00000000070220b0                sa_dl_zone4flowers_mesh_layer_1_vtx_cull
                0x0000000007022130                sa_dl_zone4_moss_mesh_layer_1_vtx_0
                0x0000000007022430                sa_dl_zone4_moss_mesh_layer_1_vtx_cull
                0x00000000070224b0                sa_dl_zone4_door_inside_mesh_layer_1_vtx_0
                0x0000000007022550                sa_dl_zone4_door_inside_mesh_layer_1_vtx_cull
                0x00000000070225d0                sa_dl_zone4_door_mesh_layer_5_vtx_0
                0x0000000007022690                sa_dl_zone4_door_mesh_layer_5_vtx_cull
                0x0000000007022710                sa_dl_zone4_mesh_layer_5_vtx_1
                0x0000000007022750                sa_dl_zone4_mesh_layer_5_vtx_0
                0x0000000007022bd0                sa_dl_zone4_mesh_layer_5_vtx_cull
                0x0000000007022c50                sa_dl_zone4_mesh_layer_1_vtx_12
                0x0000000007022f10                sa_dl_zone4_mesh_layer_1_vtx_11
                0x0000000007024930                sa_dl_zone4_mesh_layer_1_vtx_10
                0x0000000007024c90                sa_dl_zone4_mesh_layer_1_vtx_9
                0x0000000007024e20                sa_dl_zone4_mesh_layer_1_vtx_8
                0x0000000007025020                sa_dl_zone4_mesh_layer_1_vtx_7
                0x0000000007025060                sa_dl_zone4_mesh_layer_1_vtx_6
                0x0000000007025320                sa_dl_zone4_mesh_layer_1_vtx_5
                0x00000000070258c0                sa_dl_zone4_mesh_layer_1_vtx_4
                0x0000000007025aa0                sa_dl_zone4_mesh_layer_1_vtx_3
                0x0000000007025db0                sa_dl_zone4_mesh_layer_1_vtx_2
                0x0000000007027250                sa_dl_zone4_mesh_layer_1_vtx_1
                0x0000000007027bf0                sa_dl_zone4_mesh_layer_1_vtx_0
                0x0000000007027e30                sa_dl_zone4_mesh_layer_1_vtx_cull
                0x0000000007027eb0                sa_dl_zone3_extra_cull_2_mesh_layer_1_vtx_4
                0x0000000007028090                sa_dl_zone3_extra_cull_2_mesh_layer_1_vtx_3
                0x0000000007028270                sa_dl_zone3_extra_cull_2_mesh_layer_1_vtx_2
                0x00000000070287e0                sa_dl_zone3_extra_cull_2_mesh_layer_1_vtx_1
                0x0000000007029310                sa_dl_zone3_extra_cull_2_mesh_layer_1_vtx_0
                0x0000000007029400                sa_dl_zone3_extra_cull_2_mesh_layer_1_vtx_cull
                0x0000000007029480                sa_dl_zone3_extra_cull_mesh_layer_1_vtx_12
                0x0000000007029da0                sa_dl_zone3_extra_cull_mesh_layer_1_vtx_11
                0x000000000702a190                sa_dl_zone3_extra_cull_mesh_layer_1_vtx_10
                0x000000000702a1f0                sa_dl_zone3_extra_cull_mesh_layer_1_vtx_9
                0x000000000702a480                sa_dl_zone3_extra_cull_mesh_layer_1_vtx_8
                0x000000000702be30                sa_dl_zone3_extra_cull_mesh_layer_1_vtx_7
                0x000000000702cec0                sa_dl_zone3_extra_cull_mesh_layer_1_vtx_6
                0x000000000702de60                sa_dl_zone3_extra_cull_mesh_layer_1_vtx_5
                0x000000000702ee80                sa_dl_zone3_extra_cull_mesh_layer_1_vtx_4
                0x000000000702f4a0                sa_dl_zone3_extra_cull_mesh_layer_1_vtx_3
                0x000000000702f590                sa_dl_zone3_extra_cull_mesh_layer_1_vtx_2
                0x0000000007033510                sa_dl_zone3_extra_cull_mesh_layer_1_vtx_1
                0x0000000007033a50                sa_dl_zone3_extra_cull_mesh_layer_1_vtx_0
                0x0000000007034970                sa_dl_zone3_extra_cull_mesh_layer_1_vtx_cull
                0x00000000070349f0                sa_dl_zone3_mesh_layer_1_vtx_18
                0x0000000007034ae0                sa_dl_zone3_mesh_layer_1_vtx_17
                0x0000000007034ca0                sa_dl_zone3_mesh_layer_1_vtx_16
                0x0000000007034d00                sa_dl_zone3_mesh_layer_1_vtx_15
                0x0000000007034fb0                sa_dl_zone3_mesh_layer_1_vtx_14
                0x0000000007035000                sa_dl_zone3_mesh_layer_1_vtx_13
                0x0000000007035160                sa_dl_zone3_mesh_layer_1_vtx_12
                0x00000000070358d0                sa_dl_zone3_mesh_layer_1_vtx_11
                0x0000000007035980                sa_dl_zone3_mesh_layer_1_vtx_10
                0x0000000007036000                sa_dl_zone3_mesh_layer_1_vtx_9
                0x0000000007036380                sa_dl_zone3_mesh_layer_1_vtx_8
                0x0000000007036600                sa_dl_zone3_mesh_layer_1_vtx_7
                0x00000000070369f0                sa_dl_zone3_mesh_layer_1_vtx_6
                0x0000000007036b70                sa_dl_zone3_mesh_layer_1_vtx_5
                0x0000000007036ff0                sa_dl_zone3_mesh_layer_1_vtx_4
                0x0000000007037190                sa_dl_zone3_mesh_layer_1_vtx_3
                0x0000000007037370                sa_dl_zone3_mesh_layer_1_vtx_2
                0x0000000007037700                sa_dl_zone3_mesh_layer_1_vtx_1
                0x0000000007037ac0                sa_dl_zone3_mesh_layer_1_vtx_0
                0x0000000007037ea0                sa_dl_zone3_mesh_layer_1_vtx_cull
                0x0000000007037f20                sa_dl_zone2bullseye_mesh_layer_1_vtx_0
                0x0000000007038060                sa_dl_zone2bullseye_mesh_layer_1_vtx_cull
                0x00000000070380e0                sa_dl_zone2_bulb_mesh_layer_5_vtx_0
                0x00000000070381d0                sa_dl_zone2_bulb_mesh_layer_5_vtx_cull
                0x0000000007038250                sa_dl_zone2_mesh_layer_5_vtx_1
                0x0000000007038a80                sa_dl_zone2_mesh_layer_5_vtx_0
                0x0000000007038ea0                sa_dl_zone2_mesh_layer_5_vtx_cull
                0x0000000007038f20                sa_dl_zone2_mesh_layer_1_vtx_14
                0x00000000070391a0                sa_dl_zone2_mesh_layer_1_vtx_13
                0x00000000070391e0                sa_dl_zone2_mesh_layer_1_vtx_12
                0x0000000007039220                sa_dl_zone2_mesh_layer_1_vtx_11
                0x0000000007039260                sa_dl_zone2_mesh_layer_1_vtx_10
                0x00000000070392a0                sa_dl_zone2_mesh_layer_1_vtx_9
                0x0000000007039420                sa_dl_zone2_mesh_layer_1_vtx_8
                0x0000000007039500                sa_dl_zone2_mesh_layer_1_vtx_7
                0x0000000007039dc0                sa_dl_zone2_mesh_layer_1_vtx_6
                0x000000000703ab10                sa_dl_zone2_mesh_layer_1_vtx_5
                0x000000000703ac10                sa_dl_zone2_mesh_layer_1_vtx_4
                0x000000000703b310                sa_dl_zone2_mesh_layer_1_vtx_3
                0x000000000703c330                sa_dl_zone2_mesh_layer_1_vtx_2
                0x000000000703cb00                sa_dl_zone2_mesh_layer_1_vtx_1
                0x000000000703cc80                sa_dl_zone2_mesh_layer_1_vtx_0
                0x000000000703ccc0                sa_dl_zone2_mesh_layer_1_vtx_cull
                0x000000000703cd40                sa_dl_zone1water_mesh_layer_5_vtx_0
                0x000000000703d0f0                sa_dl_zone1water_mesh_layer_5_vtx_cull
                0x000000000703d170                sa_dl_zone1_mesh_layer_4_vtx_0
                0x000000000703d3b0                sa_dl_zone1_mesh_layer_4_vtx_cull
                0x000000000703d430                sa_dl_zone1_mesh_layer_1_vtx_11
                0x000000000703d870                sa_dl_zone1_mesh_layer_1_vtx_10
                0x000000000703e0b0                sa_dl_zone1_mesh_layer_1_vtx_9
                0x000000000703e160                sa_dl_zone1_mesh_layer_1_vtx_8
                0x000000000703e3e0                sa_dl_zone1_mesh_layer_1_vtx_7
                0x000000000703e460                sa_dl_zone1_mesh_layer_1_vtx_6
                0x000000000703e5e0                sa_dl_zone1_mesh_layer_1_vtx_5
                0x000000000703ee80                sa_dl_zone1_mesh_layer_1_vtx_4
                0x000000000703eee0                sa_dl_zone1_mesh_layer_1_vtx_3
                0x000000000703f3e0                sa_dl_zone1_mesh_layer_1_vtx_2
                0x000000000703fac0                sa_dl_zone1_mesh_layer_1_vtx_1
                0x000000000703fcb0                sa_dl_zone1_mesh_layer_1_vtx_0
                0x000000000703fd70                sa_dl_zone1_mesh_layer_1_vtx_cull
                0x000000000703fdf0                sa_dl_sunright_pal_rgba16
                0x000000000703fe18                sa_dl_sunright_pal_rgba16_aligner
                0x000000000703fe20                sa_dl_sunright_ci8
                0x0000000007040220                sa_dl_sunright_ci8_aligner
                0x0000000007040228                sa_dl_segment2_0F458_ia8_pal_rgba16
                0x0000000007040240                sa_dl_segment2_0F458_ia8_pal_rgba16_aligner
                0x0000000007040248                sa_dl_segment2_0F458_ia8_ci4
                0x0000000007040648                sa_dl_segment2_0F458_ia8_ci4_aligner
                0x0000000007040650                sa_dl_shooting_star_pal_rgba16
                0x0000000007040658                sa_dl_shooting_star_pal_rgba16_aligner
                0x0000000007040660                sa_dl_shooting_star_ci4
                0x0000000007040e60                sa_dl_shooting_star_ci4_aligner
                0x0000000007040e68                sa_dl_stars_pal_rgba16
                0x0000000007040e70                sa_dl_stars_pal_rgba16_aligner
                0x0000000007040e78                sa_dl_stars_ci4
                0x0000000007041678                sa_dl_stars_ci4_aligner
                0x0000000007041680                sa_dl_black_i8_copy
                0x0000000007041a80                sa_dl_black_i8_copy_aligner
                0x0000000007041a88                sa_dl_purple_glass_pal_rgba16
                0x0000000007041a90                sa_dl_purple_glass_pal_rgba16_aligner
                0x0000000007041a98                sa_dl_purple_glass_ci4
                0x0000000007041c98                sa_dl_purple_glass_ci4_aligner
                0x0000000007041ca0                sa_dl_green_glass_pal_rgba16
                0x0000000007041ca8                sa_dl_green_glass_pal_rgba16_aligner
                0x0000000007041cb0                sa_dl_green_glass_ci4
                0x0000000007041eb0                sa_dl_green_glass_ci4_aligner
                0x0000000007041eb8                sa_dl_Glover_F2660A8A_0_0_88918D8D_ciByRGBA_pal_rgba16
                0x0000000007041ec0                sa_dl_Glover_F2660A8A_0_0_88918D8D_ciByRGBA_pal_rgba16_aligner
                0x0000000007041ec8                sa_dl_Glover_F2660A8A_0_0_88918D8D_ciByRGBA_ci4
                0x00000000070420c8                sa_dl_Glover_F2660A8A_0_0_88918D8D_ciByRGBA_ci4_aligner
                0x00000000070420d0                sa_dl_yellow_shine_2_pal_rgba16_copy
                0x0000000007042100                sa_dl_yellow_shine_2_pal_rgba16_copy_aligner
                0x0000000007042108                sa_dl_yellow_shine_2_ci8_copy
                0x0000000007042508                sa_dl_yellow_shine_2_ci8_copy_aligner
                0x0000000007042510                sa_dl_water_pal_rgba16
                0x0000000007042530                sa_dl_water_pal_rgba16_aligner
                0x0000000007042538                sa_dl_water_ci4
                0x0000000007042738                sa_dl_water_ci4_aligner
                0x0000000007042740                sa_dl_auto2_rgba16
                0x0000000007042f40                sa_dl_auto2_rgba16_aligner
                0x0000000007042f48                sa_dl_auto3_rgba16
                0x0000000007043748                sa_dl_auto3_rgba16_aligner
                0x0000000007043750                sa_dl_auto1_rgba16
                0x0000000007043f50                sa_dl_auto1_rgba16_aligner
                0x0000000007043f58                sa_dl_glowy_pal_rgba16
                0x0000000007043f78                sa_dl_glowy_pal_rgba16_aligner
                0x0000000007043f80                sa_dl_glowy_ci4
                0x0000000007044180                sa_dl_glowy_ci4_aligner
                0x0000000007044188                sa_dl_glowy2_pal_rgba16
                0x0000000007044190                sa_dl_glowy2_pal_rgba16_aligner
                0x0000000007044198                sa_dl_glowy2_ci4
                0x0000000007044398                sa_dl_glowy2_ci4_aligner
                0x00000000070443a0                sa_dl__0x2CA0_pal_rgba16
                0x00000000070443c0                sa_dl__0x2CA0_pal_rgba16_aligner
                0x00000000070443c8                sa_dl__0x2CA0_ci4
                0x0000000007044bc8                sa_dl__0x2CA0_ci4_aligner
                0x0000000007044bd0                sa_dl__0x20_pal_rgba16
                0x0000000007044bf0                sa_dl__0x20_pal_rgba16_aligner
                0x0000000007044bf8                sa_dl__0x20_ci4
                0x00000000070453f8                sa_dl__0x20_ci4_aligner
                0x0000000007045400                sa_dl__0x13FA0_pal_rgba16
                0x0000000007045420                ::sa_dl(long long, FA0_pal_rgba1, _align,...)(long double)
                0x0000000007045428                sa_dl__0x13FA0_ci4
                0x0000000007045c28                ::sa_dl(long long, FA0_ci4_align,...)(long double)
                0x0000000007045c30                sa_dl__0x5920_pal_rgba16
                0x0000000007045c50                sa_dl__0x5920_pal_rgba16_aligner
                0x0000000007045c58                sa_dl__0x5920_ci4
                0x0000000007046458                sa_dl__0x5920_ci4_aligner
                0x0000000007046460                sa_dl_yellow_shine_2_pal_rgba16
                0x0000000007046490                sa_dl_yellow_shine_2_pal_rgba16_aligner
                0x0000000007046498                sa_dl_yellow_shine_2_ci8
                0x0000000007046898                sa_dl_yellow_shine_2_ci8_aligner
                0x00000000070468a0                sa_dl_Slide_texture_rgba16
                0x00000000070470a0                sa_dl_Slide_texture_rgba16_aligner
                0x00000000070470a8                sa_dl_wood_path_pal_rgba16
                0x00000000070470c8                sa_dl_wood_path_pal_rgba16_aligner
                0x00000000070470d0                sa_dl_wood_path_ci4
                0x00000000070478d0                sa_dl_wood_path_ci4_aligner
                0x00000000070478d8                sa_dl_rock_texture_rgba16
                0x00000000070480d8                sa_dl_rock_texture_rgba16_aligner
                0x00000000070480e0                sa_dl_auto15_rgba16
                0x00000000070488e0                sa_dl_auto15_rgba16_aligner
                0x00000000070488e8                sa_dl__64A287B4F56C6280BC6ED7894C1BA090_pal_rgba16
                0x0000000007048908                sa_dl__64A287B4F56C6280BC6ED7894C1BA090_pal_rgba16_aligner
                0x0000000007048910                sa_dl__64A287B4F56C6280BC6ED7894C1BA090_ci4
                0x0000000007049110                sa_dl__64A287B4F56C6280BC6ED7894C1BA090_ci4_aligner
                0x0000000007049118                sa_dl_black_i8
                0x0000000007049518                sa_dl_black_i8_aligner
                0x0000000007049520                sa_dl_ground_floor_grassy_rgba16
                0x0000000007049d20                sa_dl_ground_floor_grassy_rgba16_aligner
                0x0000000007049d28                sa_dl__0x28C0_pal_rgba16
                0x0000000007049d48                sa_dl__0x28C0_pal_rgba16_aligner
                0x0000000007049d50                sa_dl__0x28C0_ci4
                0x000000000704a550                sa_dl__0x28C0_ci4_aligner
                0x000000000704a558                sa_dl_Cave_ceiling_again_pal_rgba16
                0x000000000704a578                sa_dl_Cave_ceiling_again_pal_rgba16_aligner
                0x000000000704a580                sa_dl_Cave_ceiling_again_ci4
                0x000000000704ad80                sa_dl_Cave_ceiling_again_ci4_aligner
                0x000000000704ad88                sa_dl__13_pal_rgba16
                0x000000000704ada8                sa_dl__13_pal_rgba16_aligner
                0x000000000704adb0                sa_dl__13_ci4
                0x000000000704b5b0                sa_dl__13_ci4_aligner
                0x000000000704b5b8                sa_dl__7D2F86AC779F49A63853A0C0E1AC7FCD_pal_rgba16
                0x000000000704b730                sa_dl__7D2F86AC779F49A63853A0C0E1AC7FCD_pal_rgba16_aligner
                0x000000000704b738                sa_dl__7D2F86AC779F49A63853A0C0E1AC7FCD_ci8
                0x000000000704bb38                sa_dl__7D2F86AC779F49A63853A0C0E1AC7FCD_ci8_aligner
                0x000000000704bb40                sa_dl__15F27B2CB38C031E90EFF2018BE0409F_pal_rgba16
                0x000000000704bb60                sa_dl__15F27B2CB38C031E90EFF2018BE0409F_pal_rgba16_aligner
                0x000000000704bb68                sa_dl__15F27B2CB38C031E90EFF2018BE0409F_ci4
                0x000000000704c368                sa_dl__15F27B2CB38C031E90EFF2018BE0409F_ci4_aligner
                0x000000000704c370                sa_dl_YOGAN01_pal_rgba16
                0x000000000704c390                sa_dl_YOGAN01_pal_rgba16_aligner
                0x000000000704c398                sa_dl_YOGAN01_ci4
                0x000000000704cb98                sa_dl_YOGAN01_ci4_aligner
                0x000000000704cba0                sa_dl__6CDF6105C5F9389B105A2BA54FDDC576_pal_rgba16
                0x000000000704cbb0                sa_dl__6CDF6105C5F9389B105A2BA54FDDC576_pal_rgba16_aligner
                0x000000000704cbb8                sa_dl__6CDF6105C5F9389B105A2BA54FDDC576_ci4
                0x000000000704d3b8                sa_dl__6CDF6105C5F9389B105A2BA54FDDC576_ci4_aligner
                0x000000000704d3c0                sa_dl_Cave_Wallz_pal_rgba16
                0x000000000704d3d8                sa_dl_Cave_Wallz_pal_rgba16_aligner
                0x000000000704d3e0                sa_dl_Cave_Wallz_ci4
                0x000000000704dbe0                sa_dl_Cave_Wallz_ci4_aligner
                0x000000000704dbe8                sa_dl_Stalactite_rgba16
                0x000000000704e3e8                sa_dl_Stalactite_rgba16_aligner
                0x000000000704e3f0                sa_dl__23509160_pal_rgba16
                0x000000000704e410                sa_dl__23509160_pal_rgba16_aligner
                0x000000000704e418                sa_dl__23509160_ci4
                0x000000000704ec18                sa_dl__23509160_ci4_aligner
                0x000000000704ec20                sa_dl_Glover_F3B94242_0_0_54220A8E_ciByRGBA_pal_rgba16
                0x000000000704ec38                sa_dl_Glover_F3B94242_0_0_54220A8E_ciByRGBA_pal_rgba16_aligner
                0x000000000704ec40                sa_dl_Glover_F3B94242_0_0_54220A8E_ciByRGBA_ci4
                0x000000000704ee40                sa_dl_Glover_F3B94242_0_0_54220A8E_ciByRGBA_ci4_aligner
                0x000000000704ee48                sa_dl__4_pal_rgba16
                0x000000000704ee60                sa_dl__4_pal_rgba16_aligner
                0x000000000704ee68                _ci4::sa_dl(void)
                0x000000000704eee8                sa_dl__4_ci4_aligner
                0x000000000704eef0                sa_dl__2_pal_rgba16_copy
                0x000000000704ef08                sa_dl__2_pal_rgba16_copy_aligner
                0x000000000704ef10                sa_dl__2_ci4_copy
                0x000000000704ef90                sa_dl__2_ci4_copy_aligner
                0x000000000704ef98                sa_dl__1_pal_rgba16
                0x000000000704efb0                sa_dl__1_pal_rgba16_aligner
                0x000000000704efb8                sa_dl__1_ci4
                0x000000000704f038                sa_dl__1_ci4_aligner
                0x000000000704f040                sa_dl__3_pal_rgba16
                0x000000000704f058                sa_dl__3_pal_rgba16_aligner
                0x000000000704f060                sa_dl__3_ci4
                0x000000000704f0e0                sa_dl__3_ci4_aligner
                0x000000000704f0e8                sa_dl_red_glass_pal_rgba16
                0x000000000704f0f0                sa_dl_red_glass_pal_rgba16_aligner
                0x000000000704f0f8                sa_dl_red_glass_ci4
                0x000000000704f2f8                sa_dl_red_glass_ci4_aligner
                0x000000000704f300                sa_dl_Metal_2_rgba16
                0x000000000704fb00                sa_dl_Metal_2_rgba16_aligner
                0x000000000704fb08                sa_dl_Glass__transp__rgba16
                0x0000000007050308                sa_dl_Glass__transp__rgba16_aligner
                0x0000000007050310                sa_dl_TRANSPARENT_rgba16
                0x0000000007051310                sa_dl_TRANSPARENT_rgba16_aligner
                0x0000000007051318                sa_dl_Metal_pal_rgba16
                0x0000000007051338                sa_dl_Metal_pal_rgba16_aligner
                0x0000000007051340                sa_dl_Metal_ci4
                0x0000000007051b40                sa_dl_Metal_ci4_aligner
                0x0000000007051b48                sa_dl_Metal_5_rgba16
                0x0000000007052348                sa_dl_Metal_5_rgba16_aligner
                0x0000000007052350                sa_dl_Pipe__transp__rgba16
                0x0000000007053350                sa_dl_Pipe__transp__rgba16_aligner
                0x0000000007053358                sa_dl_Pipe_edge_rgba16
                0x0000000007054358                sa_dl_Pipe_edge_rgba16_aligner
                0x0000000007054360                sa_dl_Metal_4_rgba16
                0x0000000007054b60                sa_dl_Metal_4_rgba16_aligner
                0x0000000007054b68                sa_dl_Metal_3_rgba16
                0x0000000007055368                sa_dl_Metal_3_rgba16_aligner
                0x0000000007055370                sa_dl_MarioParty_95310FBB_2_0_ci_pal_rgba16
                0x0000000007055390                sa_dl_MarioParty_95310FBB_2_0_ci_pal_rgba16_aligner
                0x0000000007055398                sa_dl_MarioParty_95310FBB_2_0_ci_ci4
                0x0000000007055598                sa_dl_MarioParty_95310FBB_2_0_ci_ci4_aligner
                0x00000000070555a0                sa_dl_Tan2_rgba16
                0x0000000007055da0                sa_dl_Tan2_rgba16_aligner
                0x0000000007055da8                sa_dl_Waterfall_rgba16
                0x0000000007056da8                sa_dl_Waterfall_rgba16_aligner
                0x0000000007056db0                sa_dl_windy2_pal_rgba16
                0x0000000007056dc8                sa_dl_windy2_pal_rgba16_aligner
                0x0000000007056dd0                sa_dl_windy2_ci4
                0x0000000007056e50                sa_dl_windy2_ci4_aligner
                0x0000000007056e58                sa_dl_windy3_i8
                0x0000000007056f58                sa_dl_windy3_i8_aligner
                0x0000000007056f60                sa_dl_Roof_Shingles_pal_rgba16
                0x0000000007057018                sa_dl_Roof_Shingles_pal_rgba16_aligner
                0x0000000007057020                sa_dl_Roof_Shingles_ci8
                0x0000000007057820                sa_dl_Roof_Shingles_ci8_aligner
                0x0000000007057828                sa_dl_Cladding_Siding_Tan_pal_rgba16
                0x0000000007057848                sa_dl_Cladding_Siding_Tan_pal_rgba16_aligner
                0x0000000007057850                sa_dl_Cladding_Siding_Tan_ci4
                0x0000000007058050                sa_dl_Cladding_Siding_Tan_ci4_aligner
                0x0000000007058058                sa_dl__2_pal_rgba16
                0x0000000007058078                sa_dl__2_pal_rgba16_aligner
                0x0000000007058080                sa_dl__2_ci4
                0x0000000007058880                sa_dl__2_ci4_aligner
                0x0000000007058888                sa_dl_Fence_pal_rgba16
                0x00000000070588a8                sa_dl_Fence_pal_rgba16_aligner
                0x00000000070588b0                sa_dl_Fence_ci4
                0x00000000070590b0                sa_dl_Fence_ci4_aligner
                0x00000000070590b8                sa_dl_Glover_6466F10C_0_0_D5A6066D_ci_pal_rgba16
                0x00000000070590d8                sa_dl_Glover_6466F10C_0_0_D5A6066D_ci_pal_rgba16_aligner
                0x00000000070590e0                sa_dl_Glover_6466F10C_0_0_D5A6066D_ci_ci4
                0x00000000070592e0                sa_dl_Glover_6466F10C_0_0_D5A6066D_ci_ci4_aligner
                0x00000000070592e8                sa_dl_Grass_pal_rgba16
                0x0000000007059300                sa_dl_Grass_pal_rgba16_aligner
                0x0000000007059308                sa_dl_Grass_ci4
                0x0000000007059b08                sa_dl_Grass_ci4_aligner
                0x0000000007059b10                sa_dl_Brick2_1__rgba16
                0x000000000705ab10                sa_dl_Brick2_1__rgba16_aligner
                0x000000000705ab18                sa_dl_Brick_pal_rgba16
                0x000000000705ab38                sa_dl_Brick_pal_rgba16_aligner
                0x000000000705ab40                sa_dl_Brick_ci4
                0x000000000705b340                sa_dl_Brick_ci4_aligner
                0x000000000705b348                sa_dl_Dirt_pal_rgba16
                0x000000000705b368                sa_dl_Dirt_pal_rgba16_aligner
                0x000000000705b370                sa_dl_Dirt_ci4
                0x000000000705bb70                sa_dl_Dirt_ci4_aligner
                0x000000000705bb78                sa_dl_Brick2_rgba16
                0x000000000705cb78                sa_dl_Brick2_rgba16_aligner
                0x000000000705cb80                sa_dl_a_pal_rgba16
                0x000000000705cba0                sa_dl_a_pal_rgba16_aligner
                0x000000000705cba8                sa_dl_a_ci4
                0x000000000705d3a8                sa_dl_a_ci4_aligner
                0x000000000705d3b0                sa_area_2_macro_objs
                0x000000000705d3b4                sa_area_2_collision
                0x0000000007062748                sa_area_1_macro_objs
                0x000000000706274c                sa_area_1_collision

.data1
 *(.data1)

.got.plt
 *(.got.plt)
                0x0000000007070276                . = .
                0x0000000007070276                . = .
                0x0000000007078270                _gp = (ALIGN (0x10) + 0x7ff0)

.got
 *(.got)

.sdata
 *(.sdata .sdata.* .gnu.linkonce.s.*)

.lit8
 *(.lit8)

.lit4
 *(.lit4)
                0x0000000007070276                _edata = .
                [!provide]                        PROVIDE (edata = .)
                0x0000000007070276                . = .
                0x0000000007070276                __bss_start = .
                0x0000000007070276                _fbss = .

.sbss
 *(.dynsbss)
 *(.sbss .sbss.* .gnu.linkonce.sb.*)
 *(.scommon)

.bss            0x0000000007070276        0x0 load address 0x000000000707028e
 *(.dynbss)
 *(.bss .bss.* .gnu.linkonce.b.*)
 .bss           0x0000000007070276        0x0 build/us_n64/levels/sa/leveldata.o
 *(COMMON)
                0x0000000007070276                . = ALIGN ((. != 0x0)?0x4:0x1)
                0x0000000007070278                . = ALIGN (0x4)
                0x0000000007070278                . = SEGMENT_START ("ldata-segment", .)
                0x0000000007070278                . = ALIGN (0x4)
                0x0000000007070278                _end = .
                [!provide]                        PROVIDE (end = .)
                0x0000000007070278                . = DATA_SEGMENT_END (.)

.stab
 *(.stab)

.stabstr
 *(.stabstr)

.stab.excl
 *(.stab.excl)

.stab.exclstr
 *(.stab.exclstr)

.stab.index
 *(.stab.index)

.stab.indexstr
 *(.stab.indexstr)

.comment        0x0000000000000000       0x12
 *(.comment)
 .comment       0x0000000000000000       0x12 build/us_n64/levels/sa/leveldata.o
                                         0x13 (size before relaxing)

.pdr            0x0000000000000000        0x0
 .pdr           0x0000000000000000        0x0 build/us_n64/levels/sa/leveldata.o

.debug
 *(.debug)

.line
 *(.line)

.debug_srcinfo
 *(.debug_srcinfo)

.debug_sfnames
 *(.debug_sfnames)

.debug_aranges
 *(.debug_aranges)

.debug_pubnames
 *(.debug_pubnames)

.debug_info
 *(.debug_info .gnu.linkonce.wi.*)

.debug_abbrev
 *(.debug_abbrev)

.debug_line
 *(.debug_line .debug_line.* .debug_line_end)

.debug_frame
 *(.debug_frame)

.debug_str
 *(.debug_str)

.debug_loc
 *(.debug_loc)

.debug_macinfo
 *(.debug_macinfo)

.debug_weaknames
 *(.debug_weaknames)

.debug_funcnames
 *(.debug_funcnames)

.debug_typenames
 *(.debug_typenames)

.debug_varnames
 *(.debug_varnames)

.debug_pubtypes
 *(.debug_pubtypes)

.debug_ranges
 *(.debug_ranges)

.debug_macro
 *(.debug_macro)

.debug_addr
 *(.debug_addr)

.gnu.attributes
                0x0000000000000000       0x10
 *(.gnu.attributes)
 .gnu.attributes
                0x0000000000000000       0x10 build/us_n64/levels/sa/leveldata.o

.gptab.sdata
 *(.gptab.data)
 *(.gptab.sdata)

.gptab.sbss
 *(.gptab.bss)
 *(.gptab.sbss)

.mdebug.abi32   0x0000000000000000        0x0
 *(.mdebug.abi32)
 .mdebug.abi32  0x0000000000000000        0x0 build/us_n64/levels/sa/leveldata.o

.mdebug.abiN32
 *(.mdebug.abiN32)

.mdebug.abi64
 *(.mdebug.abi64)

.mdebug.abiO64
 *(.mdebug.abiO64)

.mdebug.eabi32
 *(.mdebug.eabi32)

.mdebug.eabi64
 *(.mdebug.eabi64)

.gcc_compiled_long32
 *(.gcc_compiled_long32)

.gcc_compiled_long64
 *(.gcc_compiled_long64)

/DISCARD/
 *(.note.GNU-stack)
 *(.gnu_debuglink)
 *(.gnu.lto_*)
OUTPUT(build/us_n64/levels/sa/leveldata.elf elf32-bigmips)
