
Memory Configuration

Name             Origin             Length             Attributes
*default*        0x0000000000000000 0xffffffffffffffff

Linker script and memory map

Address of section .text set to 0x7000000
LOAD build/us_n64/bin/water.elf
LOAD build/us_n64/levels/jrb/leveldata.o
                [!provide]                        PROVIDE (__executable_start = SEGMENT_START ("text-segment", 0x400000))
                0x0000000000400000                . = SEGMENT_START ("text-segment", 0x400000)

.interp
 *(.interp)

.MIPS.abiflags  0x0000000000400000       0x18
 *(.MIPS.abiflags)
 .MIPS.abiflags
                0x0000000000400000       0x18 build/us_n64/levels/jrb/leveldata.o

.reginfo        0x0000000000400018       0x18
 *(.reginfo)
 .reginfo       0x0000000000400018       0x18 build/us_n64/levels/jrb/leveldata.o

.note.gnu.build-id
 *(.note.gnu.build-id)

.dynamic
 *(.dynamic)

.hash
 *(.hash)

.gnu.hash
 *(.gnu.hash)

.dynsym
 *(.dynsym)

.dynstr
 *(.dynstr)

.gnu.version
 *(.gnu.version)

.gnu.version_d
 *(.gnu.version_d)

.gnu.version_r
 *(.gnu.version_r)

.rel.dyn        0x0000000000400018        0x0 load address 0x0000000000400030
 *(.rel.init)
 *(.rel.text .rel.text.* .rel.gnu.linkonce.t.*)
 *(.rel.fini)
 *(.rel.rodata .rel.rodata.* .rel.gnu.linkonce.r.*)
 *(.rel.data.rel.ro .rel.data.rel.ro.* .rel.gnu.linkonce.d.rel.ro.*)
 *(.rel.data .rel.data.* .rel.gnu.linkonce.d.*)
 *(.rel.tdata .rel.tdata.* .rel.gnu.linkonce.td.*)
 *(.rel.tbss .rel.tbss.* .rel.gnu.linkonce.tb.*)
 *(.rel.ctors)
 *(.rel.dtors)
 *(.rel.got)
 *(.rel.dyn)
 .rel.dyn       0x0000000000400018        0x0 build/us_n64/levels/jrb/leveldata.o
 *(.rel.sdata .rel.sdata.* .rel.gnu.linkonce.s.*)
 *(.rel.sbss .rel.sbss.* .rel.gnu.linkonce.sb.*)
 *(.rel.sdata2 .rel.sdata2.* .rel.gnu.linkonce.s2.*)
 *(.rel.sbss2 .rel.sbss2.* .rel.gnu.linkonce.sb2.*)
 *(.rel.bss .rel.bss.* .rel.gnu.linkonce.b.*)
                [!provide]                        PROVIDE (__rel_iplt_start = .)
 *(.rel.iplt)
                [!provide]                        PROVIDE (__rel_iplt_end = .)

.rela.dyn       0x0000000000400018        0x0
 *(.rela.init)
 *(.rela.text .rela.text.* .rela.gnu.linkonce.t.*)
 *(.rela.fini)
 *(.rela.rodata .rela.rodata.* .rela.gnu.linkonce.r.*)
 *(.rela.data .rela.data.* .rela.gnu.linkonce.d.*)
 *(.rela.tdata .rela.tdata.* .rela.gnu.linkonce.td.*)
 *(.rela.tbss .rela.tbss.* .rela.gnu.linkonce.tb.*)
 *(.rela.ctors)
 *(.rela.dtors)
 *(.rela.got)
 *(.rela.sdata .rela.sdata.* .rela.gnu.linkonce.s.*)
 *(.rela.sbss .rela.sbss.* .rela.gnu.linkonce.sb.*)
 *(.rela.sdata2 .rela.sdata2.* .rela.gnu.linkonce.s2.*)
 *(.rela.sbss2 .rela.sbss2.* .rela.gnu.linkonce.sb2.*)
 *(.rela.bss .rela.bss.* .rela.gnu.linkonce.b.*)
                [!provide]                        PROVIDE (__rela_iplt_start = .)
 *(.rela.iplt)
                [!provide]                        PROVIDE (__rela_iplt_end = .)

.rel.plt
 *(.rel.plt)

.rela.plt
 *(.rela.plt)

.init
 *(SORT_NONE(.init))

.plt
 *(.plt)

.iplt
 *(.iplt)

.text           0x0000000007000000        0x0 load address 0x0000000007000018
                0x0000000007000000                _ftext = .
 *(.text.unlikely .text.*_unlikely .text.unlikely.*)
 *(.text.exit .text.exit.*)
 *(.text.startup .text.startup.*)
 *(.text.hot .text.hot.*)
 *(.text .stub .text.* .gnu.linkonce.t.*)
 .text          0x0000000007000000        0x0 build/us_n64/levels/jrb/leveldata.o
 *(.gnu.warning)
 *(.mips16.fn.*)
 *(.mips16.call.*)

.fini
 *(SORT_NONE(.fini))
                [!provide]                        PROVIDE (__etext = .)
                [!provide]                        PROVIDE (_etext = .)
                [!provide]                        PROVIDE (etext = .)

.rodata
 *(.rodata .rodata.* .gnu.linkonce.r.*)

.rodata1
 *(.rodata1)

.sdata2
 *(.sdata2 .sdata2.* .gnu.linkonce.s2.*)

.sbss2
 *(.sbss2 .sbss2.* .gnu.linkonce.sb2.*)

.eh_frame_hdr
 *(.eh_frame_hdr)
 *(.eh_frame_entry .eh_frame_entry.*)

.eh_frame
 *(.eh_frame)
 *(.eh_frame.*)

.gcc_except_table
 *(.gcc_except_table .gcc_except_table.*)

.gnu_extab
 *(.gnu_extab*)

.exception_ranges
 *(.exception_ranges .exception_ranges*)
                0x0000000007000000                . = DATA_SEGMENT_ALIGN (CONSTANT (MAXPAGESIZE), CONSTANT (COMMONPAGESIZE))

.eh_frame
 *(.eh_frame)
 *(.eh_frame.*)

.gnu_extab
 *(.gnu_extab)

.gcc_except_table
 *(.gcc_except_table .gcc_except_table.*)

.exception_ranges
 *(.exception_ranges .exception_ranges*)

.tdata
 *(.tdata .tdata.* .gnu.linkonce.td.*)

.tbss
 *(.tbss .tbss.* .gnu.linkonce.tb.*)
 *(.tcommon)

.preinit_array  0x0000000007000000        0x0
                [!provide]                        PROVIDE (__preinit_array_start = .)
 *(.preinit_array)
                [!provide]                        PROVIDE (__preinit_array_end = .)

.init_array     0x0000000007000000        0x0
                [!provide]                        PROVIDE (__init_array_start = .)
 *(SORT_BY_INIT_PRIORITY(.init_array.*) SORT_BY_INIT_PRIORITY(.ctors.*))
 *(.init_array EXCLUDE_FILE(*crtend?.o *crtend.o *crtbegin?.o *crtbegin.o) .ctors)
                [!provide]                        PROVIDE (__init_array_end = .)

.fini_array     0x0000000007000000        0x0
                [!provide]                        PROVIDE (__fini_array_start = .)
 *(SORT_BY_INIT_PRIORITY(.fini_array.*) SORT_BY_INIT_PRIORITY(.dtors.*))
 *(.fini_array EXCLUDE_FILE(*crtend?.o *crtend.o *crtbegin?.o *crtbegin.o) .dtors)
                [!provide]                        PROVIDE (__fini_array_end = .)

.ctors
 *crtbegin.o(.ctors)
 *crtbegin?.o(.ctors)
 *(EXCLUDE_FILE(*crtend?.o *crtend.o) .ctors)
 *(SORT_BY_NAME(.ctors.*))
 *(.ctors)

.dtors
 *crtbegin.o(.dtors)
 *crtbegin?.o(.dtors)
 *(EXCLUDE_FILE(*crtend?.o *crtend.o) .dtors)
 *(SORT_BY_NAME(.dtors.*))
 *(.dtors)

.jcr
 *(.jcr)

.data.rel.ro
 *(.data.rel.ro.local* .gnu.linkonce.d.rel.ro.local.*)
 *(.data.rel.ro .data.rel.ro.* .gnu.linkonce.d.rel.ro.*)
                0x0000000007000000                . = DATA_SEGMENT_RELRO_END (., 0x0)

.data           0x0000000007000000    0x5db9c load address 0x0000000007000018
                0x0000000007000000                _fdata = .
 *(.data .data.* .gnu.linkonce.d.*)
 .data          0x0000000007000000    0x5db9c build/us_n64/levels/jrb/leveldata.o
                0x0000000007000000                c3_spin_burn_collision
                0x0000000007000090                c3_spin_Plane_mesh_layer_1
                0x0000000007000108                mat_revert_c3_spin_f3dlite_material_002_layer1
                0x0000000007000130                mat_c3_spin_f3dlite_material_002_layer1
                0x00000000070001f0                c3_spin_Plane_mesh_layer_1_tri_0
                0x0000000007000228                c3_spin_Plane_mesh_layer_1_vtx_0
                0x0000000007000368                c3_spin_Plane_mesh_layer_1_vtx_cull
                0x00000000070003e8                c3_spin_lkava_ci8
                0x00000000070007e8                c3_spin_lkava_ci8_aligner
                0x00000000070007f0                c3_spin_blackrock_x_lkava_pal_rgba16
                0x0000000007000888                c3_spin_blackrock_x_lkava_pal_rgba16_aligner
                0x0000000007000890                c3_spin_blackrock_ci4
                0x0000000007000a90                c3_spin_blackrock_ci4_aligner
                0x0000000007000a98                c3_spin_collision
                0x0000000007000b28                jrb_dl_skybox2_mesh_layer_0
                0x0000000007000b98                jrb_dl_Brimstone_Banks_Definitive_Edition_011_mesh_layer_1
                0x0000000007000c40                jrb_dl_Brimstone_Banks_Definitive_Edition_010_mesh_layer_1
                0x0000000007000ce0                jrb_dl_Brimstone_Banks_Definitive_Edition_009_mesh_layer_1
                0x0000000007000d20                jrb_dl_Brimstone_Banks_Definitive_Edition_008_mesh_layer_1
                0x0000000007000d38                jrb_dl_Brimstone_Banks_Definitive_Edition_007_mesh_layer_1
                0x0000000007000d78                jrb_dl_Brimstone_Banks_Definitive_Edition_006_mesh_layer_1
                0x0000000007000db8                jrb_dl_Brimstone_Banks_Definitive_Edition_005_mesh_layer_1
                0x0000000007000e28                jrb_dl_Brimstone_Banks_Definitive_Edition_004_mesh_layer_1
                0x0000000007000e88                jrb_dl_Brimstone_Banks_Definitive_Edition_003_mesh_layer_1
                0x0000000007000ee0                jrb_dl_Brimstone_Banks_Definitive_Edition_002_mesh_layer_1
                0x0000000007000f20                jrb_dl_Brimstone_Banks_Definitive_Edition_001_mesh_layer_1
                0x0000000007000f58                jrb_dl_Brimstone_Banks_Definitive_Edition_mesh_layer_5
                0x0000000007000fe8                jrb_dl_Brimstone_Banks_Definitive_Edition_mesh_layer_1
                0x0000000007001320                mat_revert_jrb_dl_f3dlite_material_009_layer0
                0x0000000007001348                mat_jrb_dl_f3dlite_material_009_layer0
                0x00000000070013c0                mat_revert_jrb_dl_f3dlite_material_005_layer0
                0x00000000070013f0                mat_jrb_dl_f3dlite_material_005_layer0
                0x00000000070014a8                mat_jrb_dl_NonSolid2_001_f3d_001
                0x00000000070014e8                mat_revert_jrb_dl__16_f3d
                0x0000000007001500                mat_jrb_dl__16_f3d
                0x0000000007001588                mat_revert_jrb_dl_f3dlite_material_004
                0x00000000070015a8                mat_jrb_dl_f3dlite_material_004
                0x0000000007001618                mat_revert_jrb_dl_rockNonSlip_001_f3d_001
                0x0000000007001638                mat_jrb_dl_rockNonSlip_001_f3d_001
                0x00000000070016a8                mat_jrb_dl_NonSolid_001_f3d_001
                0x00000000070016e8                mat_revert_jrb_dl_f3dlite_material_012
                0x0000000007001708                mat_jrb_dl_f3dlite_material_012
                0x0000000007001778                mat_revert_jrb_dl_f3dlite_material_010
                0x0000000007001798                mat_jrb_dl_f3dlite_material_010
                0x0000000007001808                mat_revert_jrb_dl__1_001_f3d_003
                0x0000000007001828                mat_jrb_dl__1_001_f3d_003
                0x00000000070018a0                mat_revert_jrb_dl_f3dlite_material_003
                0x00000000070018c0                mat_jrb_dl_f3dlite_material_003
                0x0000000007001930                mat_revert_jrb_dl_f3dlite_material_001
                0x0000000007001950                mat_jrb_dl_f3dlite_material_001
                0x00000000070019c0                mat_revert_jrb_dl_f3dlite_material_layer1
                0x00000000070019f0                mat_jrb_dl_f3dlite_material_layer1
                0x0000000007001a88                mat_revert_jrb_dl__30_001_f3d_001
                0x0000000007001aa0                mat_jrb_dl__30_001_f3d_001
                0x0000000007001af0                mat_jrb_dl__14_001_f3d_001
                0x0000000007001b30                mat_revert_jrb_dl__11_001_f3d_001
                0x0000000007001b50                mat_jrb_dl__11_001_f3d_001
                0x0000000007001bc0                mat_jrb_dl__12_8__001_f3d_001
                0x0000000007001c28                mat_revert_jrb_dl__12_12__001_f3d_001
                0x0000000007001c40                mat_jrb_dl__12_12__001_f3d_001
                0x0000000007001c90                mat_jrb_dl__12_2__001_f3d_001
                0x0000000007001cf8                mat_jrb_dl__12_4__001_f3d_001
                0x0000000007001d60                mat_jrb_dl__12_3__001_f3d_001
                0x0000000007001dc8                mat_jrb_dl__12_7__001_f3d_001
                0x0000000007001e30                mat_jrb_dl__12_9__001_f3d_001
                0x0000000007001e98                mat_jrb_dl__12_11__001_f3d_001
                0x0000000007001f00                mat_jrb_dl__12_5__001_f3d_001
                0x0000000007001f68                mat_jrb_dl__12_10__001_f3d_001
                0x0000000007001fd0                mat_jrb_dl__12_13__001_f3d_001
                0x0000000007002038                mat_jrb_dl__12_1__001_f3d_001
                0x00000000070020a0                mat_jrb_dl__12_6__001_f3d_001
                0x0000000007002108                mat_revert_jrb_dl__19_001_f3d_001
                0x0000000007002120                mat_jrb_dl__19_001_f3d_001
                0x0000000007002170                mat_revert_jrb_dl_NOTLava_001_f3d_001
                0x0000000007002190                mat_jrb_dl_NOTLava_001_f3d_001
                0x0000000007002200                mat_revert_jrb_dl__26_001_f3d_001
                0x0000000007002220                mat_jrb_dl__26_001_f3d_001
                0x0000000007002290                mat_revert_jrb_dl__8_001_f3d_001
                0x00000000070022a8                mat_jrb_dl__8_001_f3d_001
                0x00000000070022f8                mat_revert_jrb_dl_Cage_Bars_f3d_001
                0x0000000007002318                mat_jrb_dl_Cage_Bars_f3d_001
                0x0000000007002390                mat_jrb_dl__7_001_f3d_001
                0x00000000070023f8                mat_revert_jrb_dl_AlsoFlowingLava_001_f3d_001
                0x0000000007002418                mat_jrb_dl_AlsoFlowingLava_001_f3d_001
                0x0000000007002488                _001_f3d_001::mat_revert_jrb_dl(void)
                0x00000000070024a0                _001_f3d_001::mat_jrb_dl(void)
                0x00000000070024f0                mat_revert_jrb_dl_RockDefault_001_f3d_001
                0x0000000007002510                mat_jrb_dl_RockDefault_001_f3d_001
                0x0000000007002580                mat_revert_jrb_dl_LavaPools__noflow__001_f3d_001
                0x00000000070025a0                mat_jrb_dl_LavaPools__noflow__001_f3d_001
                0x0000000007002610                mat_revert_jrb_dl__4_001_f3d_001
                0x0000000007002630                mat_jrb_dl__4_001_f3d_001
                0x00000000070026a0                mat_revert_jrb_dl__6_001_f3d_001
                0x00000000070026c0                mat_jrb_dl__6_001_f3d_001
                0x0000000007002730                mat_revert_jrb_dl__28_001_f3d_001
                0x0000000007002748                mat_jrb_dl__28_001_f3d_001
                0x00000000070027a0                mat_revert_jrb_dl__22_001_f3d_001
                0x00000000070027b8                mat_jrb_dl__22_001_f3d_001
                0x0000000007002808                mat_jrb_dl__17_001_f3d_001
                0x0000000007002848                mat_jrb_dl__3_001_f3d_001
                0x0000000007002888                mat_revert_jrb_dl__21_001_f3d_001
                0x00000000070028a0                mat_jrb_dl__21_001_f3d_001
                0x00000000070028f0                mat_revert_jrb_dl_Marc_Pants_001_f3d_001
                0x0000000007002908                mat_jrb_dl_Marc_Pants_001_f3d_001
                0x0000000007002958                jrb_dl_skybox2_mesh_layer_0_tri_1
                0x0000000007002988                jrb_dl_skybox2_mesh_layer_0_vtx_1
                0x0000000007002a28                jrb_dl_skybox2_mesh_layer_0_tri_0
                0x0000000007002ad8                jrb_dl_skybox2_mesh_layer_0_vtx_0
                0x0000000007002c78                jrb_dl_Brimstone_Banks_Definitive_Edition_011_mesh_layer_1_tri_2
                0x0000000007003020                jrb_dl_Brimstone_Banks_Definitive_Edition_011_mesh_layer_1_vtx_2
                0x0000000007004590                jrb_dl_Brimstone_Banks_Definitive_Edition_011_mesh_layer_1_tri_1
                0x0000000007004688                jrb_dl_Brimstone_Banks_Definitive_Edition_011_mesh_layer_1_vtx_1
                0x0000000007004a18                jrb_dl_Brimstone_Banks_Definitive_Edition_011_mesh_layer_1_tri_0
                0x0000000007004a98                jrb_dl_Brimstone_Banks_Definitive_Edition_011_mesh_layer_1_vtx_0
                0x0000000007004d68                jrb_dl_Brimstone_Banks_Definitive_Edition_011_mesh_layer_1_vtx_cull
                0x0000000007004de8                jrb_dl_Brimstone_Banks_Definitive_Edition_010_mesh_layer_1_tri_4
                0x0000000007004eb8                jrb_dl_Brimstone_Banks_Definitive_Edition_010_mesh_layer_1_vtx_4
                0x00000000070053f8                jrb_dl_Brimstone_Banks_Definitive_Edition_010_mesh_layer_1_tri_3
                0x00000000070054a0                jrb_dl_Brimstone_Banks_Definitive_Edition_010_mesh_layer_1_vtx_3
                0x0000000007005730                jrb_dl_Brimstone_Banks_Definitive_Edition_010_mesh_layer_1_tri_2
                0x0000000007005970                jrb_dl_Brimstone_Banks_Definitive_Edition_010_mesh_layer_1_vtx_2
                0x00000000070068d0                jrb_dl_Brimstone_Banks_Definitive_Edition_010_mesh_layer_1_tri_1
                0x0000000007006a70                jrb_dl_Brimstone_Banks_Definitive_Edition_010_mesh_layer_1_vtx_1
                0x00000000070070e0                jrb_dl_Brimstone_Banks_Definitive_Edition_010_mesh_layer_1_tri_0
                0x0000000007007190                jrb_dl_Brimstone_Banks_Definitive_Edition_010_mesh_layer_1_vtx_0
                0x0000000007007710                jrb_dl_Brimstone_Banks_Definitive_Edition_010_mesh_layer_1_vtx_cull
                0x0000000007007790                jrb_dl_Brimstone_Banks_Definitive_Edition_009_mesh_layer_1_tri_0
                0x00000000070077b0                jrb_dl_Brimstone_Banks_Definitive_Edition_009_mesh_layer_1_vtx_0
                0x0000000007007800                jrb_dl_Brimstone_Banks_Definitive_Edition_009_mesh_layer_1_vtx_cull
                0x0000000007007880                jrb_dl_Brimstone_Banks_Definitive_Edition_008_mesh_layer_1_tri_0
                0x00000000070083d0                jrb_dl_Brimstone_Banks_Definitive_Edition_008_mesh_layer_1_vtx_0
                0x000000000700f260                jrb_dl_Brimstone_Banks_Definitive_Edition_007_mesh_layer_1_tri_0
                0x000000000700f530                jrb_dl_Brimstone_Banks_Definitive_Edition_007_mesh_layer_1_vtx_0
                0x0000000007010e40                jrb_dl_Brimstone_Banks_Definitive_Edition_007_mesh_layer_1_vtx_cull
                0x0000000007010ec0                jrb_dl_Brimstone_Banks_Definitive_Edition_006_mesh_layer_1_tri_0
                0x0000000007010ef8                jrb_dl_Brimstone_Banks_Definitive_Edition_006_mesh_layer_1_vtx_0
                0x0000000007011038                jrb_dl_Brimstone_Banks_Definitive_Edition_006_mesh_layer_1_vtx_cull
                0x00000000070110b8                jrb_dl_Brimstone_Banks_Definitive_Edition_005_mesh_layer_1_tri_2
                0x0000000007011160                jrb_dl_Brimstone_Banks_Definitive_Edition_005_mesh_layer_1_vtx_2
                0x0000000007011510                jrb_dl_Brimstone_Banks_Definitive_Edition_005_mesh_layer_1_tri_1
                0x00000000070118f8                jrb_dl_Brimstone_Banks_Definitive_Edition_005_mesh_layer_1_vtx_1
                0x0000000007012d78                jrb_dl_Brimstone_Banks_Definitive_Edition_005_mesh_layer_1_tri_0
                0x0000000007012f90                jrb_dl_Brimstone_Banks_Definitive_Edition_005_mesh_layer_1_vtx_0
                0x0000000007013550                jrb_dl_Brimstone_Banks_Definitive_Edition_005_mesh_layer_1_vtx_cull
                0x00000000070135d0                jrb_dl_Brimstone_Banks_Definitive_Edition_004_mesh_layer_1_tri_2
                0x00000000070136a8                jrb_dl_Brimstone_Banks_Definitive_Edition_004_mesh_layer_1_vtx_2
                0x0000000007013958                jrb_dl_Brimstone_Banks_Definitive_Edition_004_mesh_layer_1_tri_1
                0x00000000070139e8                jrb_dl_Brimstone_Banks_Definitive_Edition_004_mesh_layer_1_vtx_1
                0x0000000007013b68                jrb_dl_Brimstone_Banks_Definitive_Edition_004_mesh_layer_1_tri_0
                0x0000000007013c28                jrb_dl_Brimstone_Banks_Definitive_Edition_004_mesh_layer_1_vtx_0
                0x0000000007013fc8                jrb_dl_Brimstone_Banks_Definitive_Edition_004_mesh_layer_1_vtx_cull
                0x0000000007014048                jrb_dl_Brimstone_Banks_Definitive_Edition_003_mesh_layer_1_tri_1
                0x0000000007014280                jrb_dl_Brimstone_Banks_Definitive_Edition_003_mesh_layer_1_vtx_1
                0x00000000070149e0                jrb_dl_Brimstone_Banks_Definitive_Edition_003_mesh_layer_1_tri_0
                0x0000000007014b40                jrb_dl_Brimstone_Banks_Definitive_Edition_003_mesh_layer_1_vtx_0
                0x00000000070153a0                jrb_dl_Brimstone_Banks_Definitive_Edition_003_mesh_layer_1_vtx_cull
                0x0000000007015420                jrb_dl_Brimstone_Banks_Definitive_Edition_002_mesh_layer_1_tri_0
                0x00000000070156b8                jrb_dl_Brimstone_Banks_Definitive_Edition_002_mesh_layer_1_vtx_0
                0x0000000007016118                jrb_dl_Brimstone_Banks_Definitive_Edition_002_mesh_layer_1_vtx_cull
                0x0000000007016198                jrb_dl_Brimstone_Banks_Definitive_Edition_001_mesh_layer_1_tri_0
                0x0000000007016ce0                jrb_dl_Brimstone_Banks_Definitive_Edition_001_mesh_layer_1_vtx_0
                0x000000000701dc80                jrb_dl_Brimstone_Banks_Definitive_Edition_001_mesh_layer_1_vtx_cull
                0x000000000701dd00                jrb_dl_Brimstone_Banks_Definitive_Edition_mesh_layer_5_tri_1
                0x000000000701dd20                jrb_dl_Brimstone_Banks_Definitive_Edition_mesh_layer_5_vtx_1
                0x000000000701dd90                jrb_dl_Brimstone_Banks_Definitive_Edition_mesh_layer_5_tri_0
                0x000000000701df18                jrb_dl_Brimstone_Banks_Definitive_Edition_mesh_layer_5_vtx_0
                0x000000000701e908                jrb_dl_Brimstone_Banks_Definitive_Edition_mesh_layer_5_vtx_cull
                0x000000000701e988                jrb_dl_Brimstone_Banks_Definitive_Edition_mesh_layer_1_tri_37
                0x000000000701ed38                jrb_dl_Brimstone_Banks_Definitive_Edition_mesh_layer_1_vtx_37
                0x000000000701ff58                jrb_dl_Brimstone_Banks_Definitive_Edition_mesh_layer_1_tri_36
                0x0000000007020170                jrb_dl_Brimstone_Banks_Definitive_Edition_mesh_layer_1_vtx_36
                0x0000000007020ab0                jrb_dl_Brimstone_Banks_Definitive_Edition_mesh_layer_1_tri_35
                0x0000000007021918                jrb_dl_Brimstone_Banks_Definitive_Edition_mesh_layer_1_vtx_35
                0x0000000007025978                jrb_dl_Brimstone_Banks_Definitive_Edition_mesh_layer_1_tri_34
                0x0000000007026120                jrb_dl_Brimstone_Banks_Definitive_Edition_mesh_layer_1_vtx_34
                0x0000000007027eb0                jrb_dl_Brimstone_Banks_Definitive_Edition_mesh_layer_1_tri_33
                0x0000000007027f50                jrb_dl_Brimstone_Banks_Definitive_Edition_mesh_layer_1_vtx_33
                0x00000000070281a0                jrb_dl_Brimstone_Banks_Definitive_Edition_mesh_layer_1_tri_32
                0x0000000007028340                jrb_dl_Brimstone_Banks_Definitive_Edition_mesh_layer_1_vtx_32
                0x0000000007028a10                jrb_dl_Brimstone_Banks_Definitive_Edition_mesh_layer_1_tri_31
                0x0000000007028b30                jrb_dl_Brimstone_Banks_Definitive_Edition_mesh_layer_1_vtx_31
                0x0000000007029220                jrb_dl_Brimstone_Banks_Definitive_Edition_mesh_layer_1_tri_30
                0x0000000007029258                jrb_dl_Brimstone_Banks_Definitive_Edition_mesh_layer_1_vtx_30
                0x0000000007029398                jrb_dl_Brimstone_Banks_Definitive_Edition_mesh_layer_1_tri_29
                0x00000000070295a0                jrb_dl_Brimstone_Banks_Definitive_Edition_mesh_layer_1_vtx_29
                0x0000000007029fb0                jrb_dl_Brimstone_Banks_Definitive_Edition_mesh_layer_1_tri_28
                0x0000000007029fc8                jrb_dl_Brimstone_Banks_Definitive_Edition_mesh_layer_1_vtx_28
                0x000000000702a028                jrb_dl_Brimstone_Banks_Definitive_Edition_mesh_layer_1_tri_27
                0x000000000702a040                jrb_dl_Brimstone_Banks_Definitive_Edition_mesh_layer_1_vtx_27
                0x000000000702a080                jrb_dl_Brimstone_Banks_Definitive_Edition_mesh_layer_1_tri_26
                0x000000000702a098                jrb_dl_Brimstone_Banks_Definitive_Edition_mesh_layer_1_vtx_26
                0x000000000702a0f8                jrb_dl_Brimstone_Banks_Definitive_Edition_mesh_layer_1_tri_25
                0x000000000702a110                jrb_dl_Brimstone_Banks_Definitive_Edition_mesh_layer_1_vtx_25
                0x000000000702a170                jrb_dl_Brimstone_Banks_Definitive_Edition_mesh_layer_1_tri_24
                0x000000000702a188                jrb_dl_Brimstone_Banks_Definitive_Edition_mesh_layer_1_vtx_24
                0x000000000702a1e8                jrb_dl_Brimstone_Banks_Definitive_Edition_mesh_layer_1_tri_23
                0x000000000702a200                jrb_dl_Brimstone_Banks_Definitive_Edition_mesh_layer_1_vtx_23
                0x000000000702a260                jrb_dl_Brimstone_Banks_Definitive_Edition_mesh_layer_1_tri_22
                0x000000000702a278                jrb_dl_Brimstone_Banks_Definitive_Edition_mesh_layer_1_vtx_22
                0x000000000702a2d8                jrb_dl_Brimstone_Banks_Definitive_Edition_mesh_layer_1_tri_21
                0x000000000702a2f0                jrb_dl_Brimstone_Banks_Definitive_Edition_mesh_layer_1_vtx_21
                0x000000000702a350                jrb_dl_Brimstone_Banks_Definitive_Edition_mesh_layer_1_tri_20
                0x000000000702a370                jrb_dl_Brimstone_Banks_Definitive_Edition_mesh_layer_1_vtx_20
                0x000000000702a400                jrb_dl_Brimstone_Banks_Definitive_Edition_mesh_layer_1_tri_19
                0x000000000702a418                jrb_dl_Brimstone_Banks_Definitive_Edition_mesh_layer_1_vtx_19
                0x000000000702a458                jrb_dl_Brimstone_Banks_Definitive_Edition_mesh_layer_1_tri_18
                0x000000000702a470                jrb_dl_Brimstone_Banks_Definitive_Edition_mesh_layer_1_vtx_18
                0x000000000702a4d0                jrb_dl_Brimstone_Banks_Definitive_Edition_mesh_layer_1_tri_17
                0x000000000702a4e8                jrb_dl_Brimstone_Banks_Definitive_Edition_mesh_layer_1_vtx_17
                0x000000000702a528                jrb_dl_Brimstone_Banks_Definitive_Edition_mesh_layer_1_tri_16
                0x000000000702a550                jrb_dl_Brimstone_Banks_Definitive_Edition_mesh_layer_1_vtx_16
                0x000000000702a670                jrb_dl_Brimstone_Banks_Definitive_Edition_mesh_layer_1_tri_15
                0x000000000702a6b0                jrb_dl_Brimstone_Banks_Definitive_Edition_mesh_layer_1_vtx_15
                0x000000000702a7b0                jrb_dl_Brimstone_Banks_Definitive_Edition_mesh_layer_1_tri_14
                0x000000000702a7d0                jrb_dl_Brimstone_Banks_Definitive_Edition_mesh_layer_1_vtx_14
                0x000000000702a870                jrb_dl_Brimstone_Banks_Definitive_Edition_mesh_layer_1_tri_13
                0x000000000702a8f8                jrb_dl_Brimstone_Banks_Definitive_Edition_mesh_layer_1_vtx_13
                0x000000000702aaf8                jrb_dl_Brimstone_Banks_Definitive_Edition_mesh_layer_1_tri_12
                0x000000000702acc0                jrb_dl_Brimstone_Banks_Definitive_Edition_mesh_layer_1_vtx_12
                0x000000000702b900                jrb_dl_Brimstone_Banks_Definitive_Edition_mesh_layer_1_tri_11
                0x000000000702b960                jrb_dl_Brimstone_Banks_Definitive_Edition_mesh_layer_1_vtx_11
                0x000000000702bb90                jrb_dl_Brimstone_Banks_Definitive_Edition_mesh_layer_1_tri_10
                0x000000000702bc50                jrb_dl_Brimstone_Banks_Definitive_Edition_mesh_layer_1_vtx_10
                0x000000000702c160                jrb_dl_Brimstone_Banks_Definitive_Edition_mesh_layer_1_tri_9
                0x000000000702c278                jrb_dl_Brimstone_Banks_Definitive_Edition_mesh_layer_1_vtx_9
                0x000000000702c9a8                jrb_dl_Brimstone_Banks_Definitive_Edition_mesh_layer_1_tri_8
                0x000000000702cd58                jrb_dl_Brimstone_Banks_Definitive_Edition_mesh_layer_1_vtx_8
                0x000000000702e248                jrb_dl_Brimstone_Banks_Definitive_Edition_mesh_layer_1_tri_7
                0x000000000702e5c8                jrb_dl_Brimstone_Banks_Definitive_Edition_mesh_layer_1_vtx_7
                0x000000000702f478                jrb_dl_Brimstone_Banks_Definitive_Edition_mesh_layer_1_tri_6
                0x000000000702f490                jrb_dl_Brimstone_Banks_Definitive_Edition_mesh_layer_1_vtx_6
                0x000000000702f4c0                jrb_dl_Brimstone_Banks_Definitive_Edition_mesh_layer_1_tri_5
                0x000000000702ffa0                jrb_dl_Brimstone_Banks_Definitive_Edition_mesh_layer_1_vtx_5
                0x0000000007033e10                jrb_dl_Brimstone_Banks_Definitive_Edition_mesh_layer_1_tri_4
                0x0000000007033e28                jrb_dl_Brimstone_Banks_Definitive_Edition_mesh_layer_1_vtx_4
                0x0000000007033e88                jrb_dl_Brimstone_Banks_Definitive_Edition_mesh_layer_1_tri_3
                0x0000000007034070                jrb_dl_Brimstone_Banks_Definitive_Edition_mesh_layer_1_vtx_3
                0x00000000070352b0                jrb_dl_Brimstone_Banks_Definitive_Edition_mesh_layer_1_tri_2
                0x00000000070352c8                jrb_dl_Brimstone_Banks_Definitive_Edition_mesh_layer_1_vtx_2
                0x0000000007035308                jrb_dl_Brimstone_Banks_Definitive_Edition_mesh_layer_1_tri_1
                0x0000000007035350                jrb_dl_Brimstone_Banks_Definitive_Edition_mesh_layer_1_vtx_1
                0x0000000007035510                jrb_dl_Brimstone_Banks_Definitive_Edition_mesh_layer_1_tri_0
                0x0000000007035530                jrb_dl_Brimstone_Banks_Definitive_Edition_mesh_layer_1_vtx_0
                0x0000000007035570                jrb_dl_Brimstone_Banks_Definitive_Edition_mesh_layer_1_vtx_cull
                0x00000000070355f0                jrb_dl_MarioParty_0C253E06_2_0_ci_pal_rgba16
                0x0000000007035600                jrb_dl_MarioParty_0C253E06_2_0_ci_pal_rgba16_aligner
                0x0000000007035608                jrb_dl_MarioParty_0C253E06_2_0_ci_ci4
                0x0000000007035808                jrb_dl_MarioParty_0C253E06_2_0_ci_ci4_aligner
                0x0000000007035810                jrb_dl_water6_ci4
                0x0000000007035a10                jrb_dl_water6_ci4_aligner
                0x0000000007035a18                jrb_dl_tempImgEd03E5_x_water6_pal_rgba16
                0x0000000007035a60                jrb_dl_tempImgEd03E5_x_water6_pal_rgba16_aligner
                0x0000000007035a68                jrb_dl_tempImgEd03E5_ci8
                0x0000000007035e68                jrb_dl_tempImgEd03E5_ci8_aligner
                0x0000000007035e70                jrb_dl__16_pal_rgba16
                0x0000000007035e90                jrb_dl__16_pal_rgba16_aligner
                0x0000000007035e98                jrb_dl__16_ci4
                0x0000000007036698                jrb_dl__16_ci4_aligner
                0x00000000070366a0                jrb_dl_fire_thing_pal_rgba16
                0x00000000070366c0                jrb_dl_fire_thing_pal_rgba16_aligner
                0x00000000070366c8                jrb_dl_fire_thing_ci4
                0x0000000007036ec8                jrb_dl_fire_thing_ci4_aligner
                0x0000000007036ed0                jrb_dl_rockNonSlip_pal_rgba16
                0x0000000007036ef0                jrb_dl_rockNonSlip_pal_rgba16_aligner
                0x0000000007036ef8                jrb_dl_rockNonSlip_ci4
                0x00000000070376f8                jrb_dl_rockNonSlip_ci4_aligner
                0x0000000007037700                jrb_dl_B2EE28C84A85B00346F55D2A7E06CD34_pal_rgba16
                0x0000000007037720                jrb_dl_B2EE28C84A85B00346F55D2A7E06CD34_pal_rgba16_aligner
                0x0000000007037728                jrb_dl_B2EE28C84A85B00346F55D2A7E06CD34_ci4
                0x0000000007037928                jrb_dl_B2EE28C84A85B00346F55D2A7E06CD34_ci4_aligner
                0x0000000007037930                jrb_dl__59D23A60C7011CA3ED5907F30B4D5735_pal_rgba16
                0x00000000070379c8                jrb_dl__59D23A60C7011CA3ED5907F30B4D5735_pal_rgba16_aligner
                0x00000000070379d0                jrb_dl__59D23A60C7011CA3ED5907F30B4D5735_ci8
                0x0000000007037dd0                jrb_dl__59D23A60C7011CA3ED5907F30B4D5735_ci8_aligner
                0x0000000007037dd8                jrb_dl__0x5920_pal_rgba16
                0x0000000007037df8                jrb_dl__0x5920_pal_rgba16_aligner
                0x0000000007037e00                jrb_dl__0x5920_ci4
                0x0000000007038600                jrb_dl__0x5920_ci4_aligner
                0x0000000007038608                jrb_dl__0x28C0_pal_rgba16
                0x0000000007038628                jrb_dl__0x28C0_pal_rgba16_aligner
                0x0000000007038630                jrb_dl__0x28C0_ci4
                0x0000000007038e30                jrb_dl__0x28C0_ci4_aligner
                0x0000000007038e38                jrb_dl__0x11F20_pal_rgba16
                0x0000000007038e58                jrb_dl__0x11F20_pal_rgba16_aligner
                0x0000000007038e60                jrb_dl__0x11F20_ci4
                0x0000000007039660                jrb_dl__0x11F20_ci4_aligner
                0x0000000007039668                jrb_dl_temple_terre_lave_txynz_ci4_copy
                0x0000000007039e68                jrb_dl_temple_terre_lave_txynz_ci4_copy_aligner
                0x0000000007039e70                jrb_dl_temple_terre_lave_txynz_x_temple_terre_lave_txynz_pal_rgba16
                0x0000000007039e90                jrb_dl_temple_terre_lave_txynz_x_temple_terre_lave_txynz_pal_rgba16_aligner
                0x0000000007039e98                jrb_dl_temple_terre_lave_txynz_ci4
                0x000000000703a698                jrb_dl_temple_terre_lave_txynz_ci4_aligner
                0x000000000703a6a0                jrb_dl__30_rgba16
                0x000000000703aea0                jrb_dl__30_rgba16_aligner
                0x000000000703aea8                jrb_dl__47D35B88049DBB14328EC468BD3166E4_pal_rgba16
                0x000000000703aec8                D35B88049DBB14328EC468BD3166E4_pal_rgba16_align::jrb_dl(...)(long double)
                0x000000000703aed0                jrb_dl__47D35B88049DBB14328EC468BD3166E4_ci4
                0x000000000703b2d0                jrb_dl__47D35B88049DBB14328EC468BD3166E4_ci4_aligner
                0x000000000703b2d8                jrb_dl__12_8__rgba16
                0x000000000703c2d8                jrb_dl__12_8__rgba16_aligner
                0x000000000703c2e0                jrb_dl__12_12__rgba16
                0x000000000703d2e0                jrb_dl__12_12__rgba16_aligner
                0x000000000703d2e8                jrb_dl__12_2__rgba16
                0x000000000703e2e8                jrb_dl__12_2__rgba16_aligner
                0x000000000703e2f0                jrb_dl__12_4__rgba16
                0x000000000703f2f0                jrb_dl__12_4__rgba16_aligner
                0x000000000703f2f8                jrb_dl__12_3__rgba16
                0x00000000070402f8                jrb_dl__12_3__rgba16_aligner
                0x0000000007040300                jrb_dl__12_7__rgba16
                0x0000000007041300                jrb_dl__12_7__rgba16_aligner
                0x0000000007041308                jrb_dl__12_9__rgba16
                0x0000000007042308                jrb_dl__12_9__rgba16_aligner
                0x0000000007042310                jrb_dl__12_11__rgba16
                0x0000000007043310                jrb_dl__12_11__rgba16_aligner
                0x0000000007043318                jrb_dl__12_5__rgba16
                0x0000000007044318                jrb_dl__12_5__rgba16_aligner
                0x0000000007044320                jrb_dl__12_10__rgba16
                0x0000000007045320                jrb_dl__12_10__rgba16_aligner
                0x0000000007045328                jrb_dl__12_13__rgba16
                0x0000000007046328                jrb_dl__12_13__rgba16_aligner
                0x0000000007046330                jrb_dl__12_1__rgba16
                0x0000000007047330                jrb_dl__12_1__rgba16_aligner
                0x0000000007047338                jrb_dl__12_6__rgba16
                0x0000000007048338                jrb_dl__12_6__rgba16_aligner
                0x0000000007048340                jrb_dl__19_rgba16
                0x0000000007048b40                jrb_dl__19_rgba16_aligner
                0x0000000007048b48                jrb_dl_NOTLava_pal_rgba16
                0x0000000007048b68                jrb_dl_NOTLava_pal_rgba16_aligner
                0x0000000007048b70                jrb_dl_NOTLava_ci4
                0x0000000007049370                jrb_dl_NOTLava_ci4_aligner
                0x0000000007049378                jrb_dl__26_pal_rgba16
                0x0000000007049398                jrb_dl__26_pal_rgba16_aligner
                0x00000000070493a0                jrb_dl__26_ci4
                0x0000000007049ba0                jrb_dl__26_ci4_aligner
                0x0000000007049ba8                jrb_dl__8_rgba16
                0x000000000704a3a8                jrb_dl__8_rgba16_aligner
                0x000000000704a3b0                jrb_dl__28_pal_rgba16
                0x000000000704a3e0                jrb_dl__28_pal_rgba16_aligner
                0x000000000704a3e8                jrb_dl__28_ci8
                0x000000000704a7e8                jrb_dl__28_ci8_aligner
                0x000000000704a7f0                _rgba16::jrb_dl(void)
                0x000000000704aff0                jrb_dl__7_rgba16_aligner
                0x000000000704aff8                jrb_dl_AlsoFlowingLava_pal_rgba16
                0x000000000704b018                jrb_dl_AlsoFlowingLava_pal_rgba16_aligner
                0x000000000704b020                jrb_dl_AlsoFlowingLava_ci4
                0x000000000704b820                jrb_dl_AlsoFlowingLava_ci4_aligner
                0x000000000704b828                jrb_dl__12_rgba16
                0x000000000704c828                jrb_dl__12_rgba16_aligner
                0x000000000704c830                jrb_dl_RockDefault_pal_rgba16
                0x000000000704c850                jrb_dl_RockDefault_pal_rgba16_aligner
                0x000000000704c858                jrb_dl_RockDefault_ci4
                0x000000000704d058                jrb_dl_RockDefault_ci4_aligner
                0x000000000704d060                jrb_dl_LavaPools__noflow__pal_rgba16
                0x000000000704d080                jrb_dl_LavaPools__noflow__pal_rgba16_aligner
                0x000000000704d088                jrb_dl_LavaPools__noflow__ci4
                0x000000000704d888                jrb_dl_LavaPools__noflow__ci4_aligner
                0x000000000704d890                jrb_dl__4_pal_rgba16
                0x000000000704d8a8                jrb_dl__4_pal_rgba16_aligner
                0x000000000704d8b0                _ci4::jrb_dl(void)
                0x000000000704e0b0                jrb_dl__4_ci4_aligner
                0x000000000704e0b8                jrb_dl__6_pal_rgba16
                0x000000000704e0d8                jrb_dl__6_pal_rgba16_aligner
                0x000000000704e0e0                jrb_dl__6_ci4
                0x000000000704e8e0                jrb_dl__6_ci4_aligner
                0x000000000704e8e8                jrb_dl__28_rgba16
                0x000000000704f0e8                jrb_dl__28_rgba16_aligner
                0x000000000704f0f0                jrb_dl__22_rgba16
                0x000000000704f8f0                jrb_dl__22_rgba16_aligner
                0x000000000704f8f8                jrb_dl__21_rgba16
                0x00000000070500f8                jrb_dl__21_rgba16_aligner
                0x0000000007050100                jrb_dl_cloud_i8
                0x0000000007050500                jrb_dl_cloud_i8_aligner
                0x0000000007050508                jrb_area_1_spline_c3_curve
                0x00000000070505bc                jrb_area_1_macro_objs
                0x00000000070505c0                jrb_area_1_collision
                0x000000000705da50                bob_seg7_trajectory_koopa
                0x000000000705dae4                jrb_movtex_sunken_ship_water
                0x000000000705db14                jrb_movtex_initial_mist
                0x000000000705db44                jrb_movtex_water

.data1
 *(.data1)

.got.plt
 *(.got.plt)
                0x000000000705db9c                . = .
                0x000000000705db9c                . = .
                0x0000000007065b90                _gp = (ALIGN (0x10) + 0x7ff0)

.got
 *(.got)

.sdata
 *(.sdata .sdata.* .gnu.linkonce.s.*)

.lit8
 *(.lit8)

.lit4
 *(.lit4)
                0x000000000705db9c                _edata = .
                [!provide]                        PROVIDE (edata = .)
                0x000000000705db9c                . = .
                0x000000000705db9c                __bss_start = .
                0x000000000705db9c                _fbss = .

.sbss
 *(.dynsbss)
 *(.sbss .sbss.* .gnu.linkonce.sb.*)
 *(.scommon)

.bss            0x000000000705db9c        0x0 load address 0x000000000705dbb4
 *(.dynbss)
 *(.bss .bss.* .gnu.linkonce.b.*)
 .bss           0x000000000705db9c        0x0 build/us_n64/levels/jrb/leveldata.o
 *(COMMON)
                0x000000000705db9c                . = ALIGN ((. != 0x0)?0x4:0x1)
                0x000000000705db9c                . = ALIGN (0x4)
                0x000000000705db9c                . = SEGMENT_START ("ldata-segment", .)
                0x000000000705db9c                . = ALIGN (0x4)
                0x000000000705db9c                _end = .
                [!provide]                        PROVIDE (end = .)
                0x000000000705db9c                . = DATA_SEGMENT_END (.)

.stab
 *(.stab)

.stabstr
 *(.stabstr)

.stab.excl
 *(.stab.excl)

.stab.exclstr
 *(.stab.exclstr)

.stab.index
 *(.stab.index)

.stab.indexstr
 *(.stab.indexstr)

.comment        0x0000000000000000       0x12
 *(.comment)
 .comment       0x0000000000000000       0x12 build/us_n64/levels/jrb/leveldata.o
                                         0x13 (size before relaxing)

.pdr            0x0000000000000000        0x0
 .pdr           0x0000000000000000        0x0 build/us_n64/levels/jrb/leveldata.o

.debug
 *(.debug)

.line
 *(.line)

.debug_srcinfo
 *(.debug_srcinfo)

.debug_sfnames
 *(.debug_sfnames)

.debug_aranges
 *(.debug_aranges)

.debug_pubnames
 *(.debug_pubnames)

.debug_info
 *(.debug_info .gnu.linkonce.wi.*)

.debug_abbrev
 *(.debug_abbrev)

.debug_line
 *(.debug_line .debug_line.* .debug_line_end)

.debug_frame
 *(.debug_frame)

.debug_str
 *(.debug_str)

.debug_loc
 *(.debug_loc)

.debug_macinfo
 *(.debug_macinfo)

.debug_weaknames
 *(.debug_weaknames)

.debug_funcnames
 *(.debug_funcnames)

.debug_typenames
 *(.debug_typenames)

.debug_varnames
 *(.debug_varnames)

.debug_pubtypes
 *(.debug_pubtypes)

.debug_ranges
 *(.debug_ranges)

.debug_macro
 *(.debug_macro)

.debug_addr
 *(.debug_addr)

.gnu.attributes
                0x0000000000000000       0x10
 *(.gnu.attributes)
 .gnu.attributes
                0x0000000000000000       0x10 build/us_n64/levels/jrb/leveldata.o

.gptab.sdata
 *(.gptab.data)
 *(.gptab.sdata)

.gptab.sbss
 *(.gptab.bss)
 *(.gptab.sbss)

.mdebug.abi32   0x0000000000000000        0x0
 *(.mdebug.abi32)
 .mdebug.abi32  0x0000000000000000        0x0 build/us_n64/levels/jrb/leveldata.o

.mdebug.abiN32
 *(.mdebug.abiN32)

.mdebug.abi64
 *(.mdebug.abi64)

.mdebug.abiO64
 *(.mdebug.abiO64)

.mdebug.eabi32
 *(.mdebug.eabi32)

.mdebug.eabi64
 *(.mdebug.eabi64)

.gcc_compiled_long32
 *(.gcc_compiled_long32)

.gcc_compiled_long64
 *(.gcc_compiled_long64)

/DISCARD/
 *(.note.GNU-stack)
 *(.gnu_debuglink)
 *(.gnu.lto_*)
OUTPUT(build/us_n64/levels/jrb/leveldata.elf elf32-bigmips)
